; Function Attrs: mustprogress uwtable
define internal noundef ptr @_ZL19pj_rouss_destructorP8PJconstsi(ptr noundef %0, i32 noundef %1) #0 {
  %3 = icmp eq ptr %0, null
  br i1 %3, label %13, label %4

4:                                                ; preds = %2
  %5 = getelementptr inbounds nuw i8, ptr %0, i64 88
  %6 = load ptr, ptr %5, align 8, !tbaa !40
  %7 = icmp eq ptr %6, null
  br i1 %7, label %.sink.split, label %8

8:                                                ; preds = %4
  %9 = getelementptr inbounds nuw i8, ptr %6, i64 272
  %10 = load ptr, ptr %9, align 8, !tbaa !42
  %.not = icmp eq ptr %10, null
  br i1 %.not, label %.sink.split, label %11

11:                                               ; preds = %8
  tail call void @free(ptr noundef nonnull %10) #7
  br label %.sink.split

.sink.split:                                      ; preds = %8, %11, %4
  %.sink = phi i32 [ %1, %4 ], [ 4096, %11 ], [ 4096, %8 ]
  %12 = tail call noundef ptr @_Z21pj_default_destructorP8PJconstsi(ptr noundef nonnull %0, i32 noundef %.sink)
  br label %13

13:                                               ; preds = %.sink.split, %2
  %.0 = phi ptr [ null, %2 ], [ %12, %.sink.split ]
  ret ptr %.0
}